target datalayout = "e-m:e-p270:32:32-p271:32:32-p272:64:64-i64:64-i128:128-f80:128-n8:16:32:64-S128"
target triple = "x86_64-unknown-linux-gnu"

%"class.std::__cxx11::basic_string" = type { %"struct.std::__cxx11::basic_string<char>::_Alloc_hider", i64, %union.anon }
%"struct.std::__cxx11::basic_string<char>::_Alloc_hider" = type { ptr }
%union.anon = type { i64, [8 x i8] }
%"class.Imf_3_2::TiledRgbaInputFile" = type { ptr, ptr, ptr, %"class.std::__cxx11::basic_string" }

@_ZTVN7Imf_3_218TiledRgbaInputFileE = unnamed_addr constant { [4 x ptr] } { [4 x ptr] [ptr null, ptr @_ZTIN7Imf_3_218TiledRgbaInputFileE, ptr @_ZN7Imf_3_218TiledRgbaInputFileD1Ev, ptr @_ZN7Imf_3_218TiledRgbaInputFileD0Ev] }, align 8
@_ZN7Imf_3_218TiledRgbaInputFile6FromYaC1ERNS_14TiledInputFileE = unnamed_addr alias void (ptr, ptr), ptr @_ZN7Imf_3_218TiledRgbaInputFile6FromYaC2ERNS_14TiledInputFileE

; Function Attrs: mustprogress uwtable
define noundef i32 @_ZNK7Imf_3_218TiledRgbaInputFile8channelsEv(ptr noundef nonnull align 8 dereferenceable(56) %this) #4 align 2 {
entry:
  %this.addr = alloca ptr, align 8
  store ptr %this, ptr %this.addr, align 8
  %this1 = load ptr, ptr %this.addr, align 8
  %_inputFile = getelementptr inbounds %"class.Imf_3_2::TiledRgbaInputFile", ptr %this1, i32 0, i32 1
  %0 = load ptr, ptr %_inputFile, align 8
  %call = call noundef nonnull align 8 dereferenceable(49) ptr @_ZNK7Imf_3_214TiledInputFile6headerEv(ptr noundef nonnull align 8 dereferenceable(16) %0)
  %call2 = call noundef nonnull align 8 dereferenceable(48) ptr @_ZNK7Imf_3_26Header8channelsEv(ptr noundef nonnull align 8 dereferenceable(49) %call)
  %_channelNamePrefix = getelementptr inbounds %"class.Imf_3_2::TiledRgbaInputFile", ptr %this1, i32 0, i32 3
  %call3 = call noundef i32 @_ZN7Imf_3_212_GLOBAL__N_112rgbaChannelsERKNS_11ChannelListERKNSt7__cxx1112basic_stringIcSt11char_traitsIcESaIcEEE(ptr noundef nonnull align 8 dereferenceable(48) %call2, ptr noundef nonnull align 8 dereferenceable(32) %_channelNamePrefix)
  ret i32 %call3
}

; Function Attrs: mustprogress uwtable
define void @_ZN7Imf_3_218TiledRgbaInputFileC2ERNS_7IStreamERKNSt7__cxx1112basic_stringIcSt11char_traitsIcESaIcEEEi(ptr noundef nonnull align 8 dereferenceable(56) %this, ptr noundef nonnull align 8 dereferenceable(40) %is, ptr noundef nonnull align 8 dereferenceable(32) %layerName, i32 noundef %numThreads) unnamed_addr #4 align 2 personality ptr @__gxx_personality_v0 {
entry:
  %this.addr = alloca ptr, align 8
  %is.addr = alloca ptr, align 8
  %layerName.addr = alloca ptr, align 8
  %numThreads.addr = alloca i32, align 4
  %exn.slot = alloca ptr, align 8
  %ehselector.slot = alloca i32, align 4
  store ptr %this, ptr %this.addr, align 8
  store ptr %is, ptr %is.addr, align 8
  store ptr %layerName, ptr %layerName.addr, align 8
  store i32 %numThreads, ptr %numThreads.addr, align 4
  %this1 = load ptr, ptr %this.addr, align 8
  store ptr getelementptr inbounds ({ [4 x ptr] }, ptr @_ZTVN7Imf_3_218TiledRgbaInputFileE, i32 0, i32 0, i32 2), ptr %this1, align 8
  %_inputFile = getelementptr inbounds %"class.Imf_3_2::TiledRgbaInputFile", ptr %this1, i32 0, i32 1
  %call = call noalias noundef nonnull ptr @_Znwm(i64 noundef 16) #12
  %0 = load ptr, ptr %is.addr, align 8
  %1 = load i32, ptr %numThreads.addr, align 4
  invoke void @_ZN7Imf_3_214TiledInputFileC1ERNS_7IStreamEi(ptr noundef nonnull align 8 dereferenceable(16) %call, ptr noundef nonnull align 8 dereferenceable(40) %0, i32 noundef %1)
          to label %invoke.cont unwind label %lpad

invoke.cont:                                      ; preds = %entry
  store ptr %call, ptr %_inputFile, align 8
  %_fromYa = getelementptr inbounds %"class.Imf_3_2::TiledRgbaInputFile", ptr %this1, i32 0, i32 2
  store ptr null, ptr %_fromYa, align 8
  %_channelNamePrefix = getelementptr inbounds %"class.Imf_3_2::TiledRgbaInputFile", ptr %this1, i32 0, i32 3
  %2 = load ptr, ptr %layerName.addr, align 8
  %_inputFile2 = getelementptr inbounds %"class.Imf_3_2::TiledRgbaInputFile", ptr %this1, i32 0, i32 1
  %3 = load ptr, ptr %_inputFile2, align 8
  %call3 = call noundef nonnull align 8 dereferenceable(49) ptr @_ZNK7Imf_3_214TiledInputFile6headerEv(ptr noundef nonnull align 8 dereferenceable(16) %3)
  call void @_ZN7Imf_3_212_GLOBAL__N_119prefixFromLayerNameERKNSt7__cxx1112basic_stringIcSt11char_traitsIcESaIcEEERKNS_6HeaderE(ptr sret(%"class.std::__cxx11::basic_string") align 8 %_channelNamePrefix, ptr noundef nonnull align 8 dereferenceable(32) %2, ptr noundef nonnull align 8 dereferenceable(49) %call3)
  %call6 = invoke noundef i32 @_ZNK7Imf_3_218TiledRgbaInputFile8channelsEv(ptr noundef nonnull align 8 dereferenceable(56) %this1)
          to label %invoke.cont5 unwind label %lpad4

invoke.cont5:                                     ; preds = %invoke.cont
  %and = and i32 %call6, 16
  %tobool = icmp ne i32 %and, 0
  br i1 %tobool, label %if.then, label %if.end

if.then:                                          ; preds = %invoke.cont5
  %call8 = invoke noalias noundef nonnull ptr @_Znwm(i64 noundef 80) #12
          to label %invoke.cont7 unwind label %lpad4

invoke.cont7:                                     ; preds = %if.then
  %_inputFile9 = getelementptr inbounds %"class.Imf_3_2::TiledRgbaInputFile", ptr %this1, i32 0, i32 1
  %4 = load ptr, ptr %_inputFile9, align 8
  invoke void @_ZN7Imf_3_218TiledRgbaInputFile6FromYaC1ERNS_14TiledInputFileE(ptr noundef nonnull align 8 dereferenceable(80) %call8, ptr noundef nonnull align 8 dereferenceable(16) %4)
          to label %invoke.cont11 unwind label %lpad10

invoke.cont11:                                    ; preds = %invoke.cont7
  %_fromYa12 = getelementptr inbounds %"class.Imf_3_2::TiledRgbaInputFile", ptr %this1, i32 0, i32 2
  store ptr %call8, ptr %_fromYa12, align 8
  br label %if.end

lpad:                                             ; preds = %entry
  %5 = landingpad { ptr, i32 }
          cleanup
  %6 = extractvalue { ptr, i32 } %5, 0
  store ptr %6, ptr %exn.slot, align 8
  %7 = extractvalue { ptr, i32 } %5, 1
  store i32 %7, ptr %ehselector.slot, align 4
  call void @_ZdlPv(ptr noundef %call) #13
  br label %eh.resume

lpad4:                                            ; preds = %if.then, %invoke.cont
  %8 = landingpad { ptr, i32 }
          cleanup
  %9 = extractvalue { ptr, i32 } %8, 0
  store ptr %9, ptr %exn.slot, align 8
  %10 = extractvalue { ptr, i32 } %8, 1
  store i32 %10, ptr %ehselector.slot, align 4
  br label %ehcleanup

lpad10:                                           ; preds = %invoke.cont7
  %11 = landingpad { ptr, i32 }
          cleanup
  %12 = extractvalue { ptr, i32 } %11, 0
  store ptr %12, ptr %exn.slot, align 8
  %13 = extractvalue { ptr, i32 } %11, 1
  store i32 %13, ptr %ehselector.slot, align 4
  call void @_ZdlPv(ptr noundef %call8) #13
  br label %ehcleanup

if.end:                                           ; preds = %invoke.cont11, %invoke.cont5
  ret void

ehcleanup:                                        ; preds = %lpad10, %lpad4
  call void @_ZNSt7__cxx1112basic_stringIcSt11char_traitsIcESaIcEED1Ev(ptr noundef nonnull align 8 dereferenceable(32) %_channelNamePrefix) #3
  br label %eh.resume

eh.resume:                                        ; preds = %ehcleanup, %lpad
  %exn = load ptr, ptr %exn.slot, align 8
  %sel = load i32, ptr %ehselector.slot, align 4
  %lpad.val = insertvalue { ptr, i32 } poison, ptr %exn, 0
  %lpad.val13 = insertvalue { ptr, i32 } %lpad.val, i32 %sel, 1
  resume { ptr, i32 } %lpad.val13
}